
/media/psf/Home/GIT/scr1/build/verilator_wf_AHB_MAX_imc_IPIC_1_TCM_1_VIRQ_1_TRACE_1/sub.elf:     file format elf32-littleriscv
/media/psf/Home/GIT/scr1/build/verilator_wf_AHB_MAX_imc_IPIC_1_TCM_1_VIRQ_1_TRACE_1/sub.elf
architecture: riscv:rv32, flags 0x00000112:
EXEC_P, HAS_SYMS, D_PAGED
start address 0x00000200

Program Header:
    LOAD off    0x00001000 vaddr 0x00000000 paddr 0x00000000 align 2**12
         filesz 0x000006c8 memsz 0x000006e0 flags rwx
    LOAD off    0x00000c00 vaddr 0x0000fc00 paddr 0x0000fc00 align 2**12
         filesz 0x00000000 memsz 0x00000400 flags rw-

Sections:
Idx Name              Size      VMA       LMA       File off  Algn  Flags
  0 .text.init        0000028e  00000000  00000000  00001000  2**6  CONTENTS, ALLOC, LOAD, READONLY, CODE
  1 .text             000003c0  000002a0  000002a0  000012a0  2**5  CONTENTS, ALLOC, LOAD, READONLY, CODE
  2 .data             00000020  00000660  00000660  00001660  2**4  CONTENTS, ALLOC, LOAD, DATA
  3 .tohost           00000048  00000680  00000680  00001680  2**6  CONTENTS, ALLOC, LOAD, DATA
  4 .sdata            00000018  000006c8  000006c8  000016c8  2**0  ALLOC
  5 .tdata            00000000  000006e0  000006e0  000016c8  2**0  CONTENTS, ALLOC, LOAD, DATA, THREAD_LOCAL
  6 .tbss             00000000  000006e0  000006e0  00000000  2**0  ALLOC, THREAD_LOCAL
  7 .bss              00000000  000006e0  000006e0  000016c8  2**0  ALLOC
  8 .stack            00000400  0000fc00  0000fc00  00001c00  2**0  ALLOC
  9 .riscv.attributes 0000002d  00000000  00000000  000016c8  2**0  CONTENTS, READONLY
SYMBOL TABLE:
00000000 l    d  .text.init	00000000 .text.init
000002a0 l    d  .text	00000000 .text
00000660 l    d  .data	00000000 .data
00000680 l    d  .tohost	00000000 .tohost
000006c8 l    d  .sdata	00000000 .sdata
000006e0 l    d  .tdata	00000000 .tdata
000006e0 l    d  .tbss	00000000 .tbss
000006e0 l    d  .bss	00000000 .bss
0000fc00 l    d  .stack	00000000 .stack
00000000 l    d  .riscv.attributes	00000000 .riscv.attributes
00000000 l    df *ABS*	00000000 /media/psf/Home/GIT/scr1/build/verilator_wf_AHB_MAX_imc_IPIC_1_TCM_1_VIRQ_1_TRACE_1/riscv_objs/sub.o
00000620 l       .text	00000000 sc_exit
000001c0 l       .text.init	00000000 trap_vector
000001ea l       .text.init	00000000 _report
000001e8 l       .text.init	00000000 handle_exception
000001e8 l       .text.init	00000000 other_exception
000002a0 l       .text	00000000 _run_test
000002a0 l       .text	00000000 test_2
000005f8 l       .text	00000000 fail
000002b0 l       .text	00000000 test_3
000002c0 l       .text	00000000 test_4
000002d2 l       .text	00000000 test_5
000002e4 l       .text	00000000 test_6
000002f8 l       .text	00000000 test_7
0000030e l       .text	00000000 test_8
00000324 l       .text	00000000 test_9
0000033c l       .text	00000000 test_10
00000356 l       .text	00000000 test_11
00000370 l       .text	00000000 test_12
0000038a l       .text	00000000 test_13
0000039c l       .text	00000000 test_14
000003b0 l       .text	00000000 test_15
000003c4 l       .text	00000000 test_16
000003d4 l       .text	00000000 test_17
000003e4 l       .text	00000000 test_18
000003f2 l       .text	00000000 test_19
00000410 l       .text	00000000 test_20
00000430 l       .text	00000000 test_21
00000452 l       .text	00000000 test_22
0000046c l       .text	00000000 test_23
00000488 l       .text	00000000 test_24
000004a6 l       .text	00000000 test_25
000004c2 l       .text	00000000 test_26
000004e0 l       .text	00000000 test_27
000004fe l       .text	00000000 test_28
00000518 l       .text	00000000 test_29
00000534 l       .text	00000000 test_30
00000552 l       .text	00000000 test_31
0000056e l       .text	00000000 test_32
0000058e l       .text	00000000 test_33
000005ae l       .text	00000000 test_34
000005c0 l       .text	00000000 test_35
000005d4 l       .text	00000000 test_36
000005e2 l       .text	00000000 test_37
00000604 l       .text	00000000 pass
00000610 l       .text	00000000 ecall
00000400 g       *ABS*	00000000 STACK_SIZE
00000ec8 g       .sdata	00000000 __global_pointer$
00000680 g       .data	00000000 end_signature
00000660 g       .data	00000000 begin_regstate
00000680 g       .data	00000000 begin_signature
00000200 g       .text.init	00000000 _start
00000020 g       *ABS*	00000000 CL_SIZE
000000f8 g       .text.init	00000000 SIM_STOP
000006e0 g       .bss	00000000 _end
000006c0 g       .tohost	00000000 fromhost
00000680 g       .tohost	00000000 tohost
000000f4 g       .text.init	00000000 SIM_EXIT



Disassembly of section .text.init:

00000000 <SIM_EXIT-0xf4>:
	...

000000f4 <SIM_EXIT>:
  f4:	00000013          	nop

000000f8 <SIM_STOP>:
  f8:	0000006f          	j	f8 <SIM_STOP>
  fc:	ffff                	0xffff
  fe:	ffff                	0xffff
	...

000001c0 <trap_vector>:
 1c0:	34202773          	csrr	a4,mcause
 1c4:	47a1                	li	a5,8
 1c6:	02f70263          	beq	a4,a5,1ea <_report>
 1ca:	47a5                	li	a5,9
 1cc:	00f70f63          	beq	a4,a5,1ea <_report>
 1d0:	47ad                	li	a5,11
 1d2:	00f70c63          	beq	a4,a5,1ea <_report>
 1d6:	00000713          	li	a4,0
 1da:	c311                	beqz	a4,1de <trap_vector+0x1e>
 1dc:	8702                	jr	a4
 1de:	34202773          	csrr	a4,mcause
 1e2:	00075363          	bgez	a4,1e8 <handle_exception>
 1e6:	a009                	j	1e8 <handle_exception>

000001e8 <handle_exception>:
 1e8:	4505                	li	a0,1

000001ea <_report>:
 1ea:	4360006f          	j	620 <sc_exit>
 1ee:	00000013          	nop
 1f2:	00000013          	nop
 1f6:	00000013          	nop
 1fa:	00000013          	nop
 1fe:	0001                	nop

00000200 <_start>:
 200:	f1402573          	csrr	a0,mhartid
 204:	e101                	bnez	a0,204 <_start+0x4>
 206:	4e01                	li	t3,0
 208:	00000297          	auipc	t0,0x0
 20c:	fb828293          	addi	t0,t0,-72 # 1c0 <trap_vector>
 210:	30529073          	csrw	mtvec,t0
 214:	4505                	li	a0,1
 216:	057e                	slli	a0,a0,0x1f
 218:	00054863          	bltz	a0,228 <_start+0x28>
 21c:	0ff0000f          	fence
 220:	85f2                	mv	a1,t3
 222:	4501                	li	a0,0
 224:	00000073          	ecall
 228:	00000293          	li	t0,0
 22c:	00028d63          	beqz	t0,246 <_start+0x46>
 230:	10529073          	csrw	stvec,t0
 234:	62ad                	lui	t0,0xb
 236:	10928293          	addi	t0,t0,265 # b109 <__global_pointer$+0xa241>
 23a:	30229073          	csrw	medeleg,t0
 23e:	30202373          	csrr	t1,medeleg
 242:	fa6293e3          	bne	t0,t1,1e8 <handle_exception>
 246:	30005073          	csrwi	mstatus,0
 24a:	00000297          	auipc	t0,0x0
 24e:	05628293          	addi	t0,t0,86 # 2a0 <_run_test>
 252:	34129073          	csrw	mepc,t0
 256:	f1402573          	csrr	a0,mhartid
 25a:	30200073          	mret
	...

Disassembly of section .text:

000002a0 <_run_test>:
 2a0:	4081                	li	ra,0
 2a2:	4101                	li	sp,0
 2a4:	402081b3          	sub	gp,ra,sp
 2a8:	4e81                	li	t4,0
 2aa:	4e09                	li	t3,2
 2ac:	35d19663          	bne	gp,t4,5f8 <fail>

000002b0 <test_3>:
 2b0:	4085                	li	ra,1
 2b2:	4105                	li	sp,1
 2b4:	402081b3          	sub	gp,ra,sp
 2b8:	4e81                	li	t4,0
 2ba:	4e0d                	li	t3,3
 2bc:	33d19e63          	bne	gp,t4,5f8 <fail>

000002c0 <test_4>:
 2c0:	408d                	li	ra,3
 2c2:	411d                	li	sp,7
 2c4:	402081b3          	sub	gp,ra,sp
 2c8:	ffc00e93          	li	t4,-4
 2cc:	4e11                	li	t3,4
 2ce:	33d19563          	bne	gp,t4,5f8 <fail>

000002d2 <test_5>:
 2d2:	4081                	li	ra,0
 2d4:	ffff8137          	lui	sp,0xffff8
 2d8:	402081b3          	sub	gp,ra,sp
 2dc:	6ea1                	lui	t4,0x8
 2de:	4e15                	li	t3,5
 2e0:	31d19c63          	bne	gp,t4,5f8 <fail>

000002e4 <test_6>:
 2e4:	800000b7          	lui	ra,0x80000
 2e8:	4101                	li	sp,0
 2ea:	402081b3          	sub	gp,ra,sp
 2ee:	80000eb7          	lui	t4,0x80000
 2f2:	4e19                	li	t3,6
 2f4:	31d19263          	bne	gp,t4,5f8 <fail>

000002f8 <test_7>:
 2f8:	800000b7          	lui	ra,0x80000
 2fc:	ffff8137          	lui	sp,0xffff8
 300:	402081b3          	sub	gp,ra,sp
 304:	80008eb7          	lui	t4,0x80008
 308:	4e1d                	li	t3,7
 30a:	2fd19763          	bne	gp,t4,5f8 <fail>

0000030e <test_8>:
 30e:	4081                	li	ra,0
 310:	00008137          	lui	sp,0x8
 314:	117d                	addi	sp,sp,-1
 316:	402081b3          	sub	gp,ra,sp
 31a:	7ee1                	lui	t4,0xffff8
 31c:	0e85                	addi	t4,t4,1
 31e:	4e21                	li	t3,8
 320:	2dd19c63          	bne	gp,t4,5f8 <fail>

00000324 <test_9>:
 324:	800000b7          	lui	ra,0x80000
 328:	10fd                	addi	ra,ra,-1
 32a:	4101                	li	sp,0
 32c:	402081b3          	sub	gp,ra,sp
 330:	80000eb7          	lui	t4,0x80000
 334:	1efd                	addi	t4,t4,-1
 336:	4e25                	li	t3,9
 338:	2dd19063          	bne	gp,t4,5f8 <fail>

0000033c <test_10>:
 33c:	800000b7          	lui	ra,0x80000
 340:	10fd                	addi	ra,ra,-1
 342:	00008137          	lui	sp,0x8
 346:	117d                	addi	sp,sp,-1
 348:	402081b3          	sub	gp,ra,sp
 34c:	7fff8eb7          	lui	t4,0x7fff8
 350:	4e29                	li	t3,10
 352:	2bd19363          	bne	gp,t4,5f8 <fail>

00000356 <test_11>:
 356:	800000b7          	lui	ra,0x80000
 35a:	00008137          	lui	sp,0x8
 35e:	117d                	addi	sp,sp,-1
 360:	402081b3          	sub	gp,ra,sp
 364:	7fff8eb7          	lui	t4,0x7fff8
 368:	0e85                	addi	t4,t4,1
 36a:	4e2d                	li	t3,11
 36c:	29d19663          	bne	gp,t4,5f8 <fail>

00000370 <test_12>:
 370:	800000b7          	lui	ra,0x80000
 374:	10fd                	addi	ra,ra,-1
 376:	ffff8137          	lui	sp,0xffff8
 37a:	402081b3          	sub	gp,ra,sp
 37e:	80008eb7          	lui	t4,0x80008
 382:	1efd                	addi	t4,t4,-1
 384:	4e31                	li	t3,12
 386:	27d19963          	bne	gp,t4,5f8 <fail>

0000038a <test_13>:
 38a:	4081                	li	ra,0
 38c:	fff00113          	li	sp,-1
 390:	402081b3          	sub	gp,ra,sp
 394:	4e85                	li	t4,1
 396:	4e35                	li	t3,13
 398:	27d19063          	bne	gp,t4,5f8 <fail>

0000039c <test_14>:
 39c:	fff00093          	li	ra,-1
 3a0:	4105                	li	sp,1
 3a2:	402081b3          	sub	gp,ra,sp
 3a6:	ffe00e93          	li	t4,-2
 3aa:	4e39                	li	t3,14
 3ac:	25d19663          	bne	gp,t4,5f8 <fail>

000003b0 <test_15>:
 3b0:	fff00093          	li	ra,-1
 3b4:	fff00113          	li	sp,-1
 3b8:	402081b3          	sub	gp,ra,sp
 3bc:	4e81                	li	t4,0
 3be:	4e3d                	li	t3,15
 3c0:	23d19c63          	bne	gp,t4,5f8 <fail>

000003c4 <test_16>:
 3c4:	40b5                	li	ra,13
 3c6:	412d                	li	sp,11
 3c8:	402080b3          	sub	ra,ra,sp
 3cc:	4e89                	li	t4,2
 3ce:	4e41                	li	t3,16
 3d0:	23d09463          	bne	ra,t4,5f8 <fail>

000003d4 <test_17>:
 3d4:	40b9                	li	ra,14
 3d6:	412d                	li	sp,11
 3d8:	40208133          	sub	sp,ra,sp
 3dc:	4e8d                	li	t4,3
 3de:	4e45                	li	t3,17
 3e0:	21d11c63          	bne	sp,t4,5f8 <fail>

000003e4 <test_18>:
 3e4:	40b5                	li	ra,13
 3e6:	401080b3          	sub	ra,ra,ra
 3ea:	4e81                	li	t4,0
 3ec:	4e49                	li	t3,18
 3ee:	21d09563          	bne	ra,t4,5f8 <fail>

000003f2 <test_19>:
 3f2:	4201                	li	tp,0
 3f4:	40b5                	li	ra,13
 3f6:	412d                	li	sp,11
 3f8:	402081b3          	sub	gp,ra,sp
 3fc:	00018313          	mv	t1,gp
 400:	0205                	addi	tp,tp,1
 402:	4289                	li	t0,2
 404:	fe5218e3          	bne	tp,t0,3f4 <test_19+0x2>
 408:	4e89                	li	t4,2
 40a:	4e4d                	li	t3,19
 40c:	1fd31663          	bne	t1,t4,5f8 <fail>

00000410 <test_20>:
 410:	4201                	li	tp,0
 412:	40b9                	li	ra,14
 414:	412d                	li	sp,11
 416:	402081b3          	sub	gp,ra,sp
 41a:	0001                	nop
 41c:	00018313          	mv	t1,gp
 420:	0205                	addi	tp,tp,1
 422:	4289                	li	t0,2
 424:	fe5217e3          	bne	tp,t0,412 <test_20+0x2>
 428:	4e8d                	li	t4,3
 42a:	4e51                	li	t3,20
 42c:	1dd31663          	bne	t1,t4,5f8 <fail>

00000430 <test_21>:
 430:	4201                	li	tp,0
 432:	40bd                	li	ra,15
 434:	412d                	li	sp,11
 436:	402081b3          	sub	gp,ra,sp
 43a:	0001                	nop
 43c:	0001                	nop
 43e:	00018313          	mv	t1,gp
 442:	0205                	addi	tp,tp,1
 444:	4289                	li	t0,2
 446:	fe5216e3          	bne	tp,t0,432 <test_21+0x2>
 44a:	4e91                	li	t4,4
 44c:	4e55                	li	t3,21
 44e:	1bd31563          	bne	t1,t4,5f8 <fail>

00000452 <test_22>:
 452:	4201                	li	tp,0
 454:	40b5                	li	ra,13
 456:	412d                	li	sp,11
 458:	402081b3          	sub	gp,ra,sp
 45c:	0205                	addi	tp,tp,1
 45e:	4289                	li	t0,2
 460:	fe521ae3          	bne	tp,t0,454 <test_22+0x2>
 464:	4e89                	li	t4,2
 466:	4e59                	li	t3,22
 468:	19d19863          	bne	gp,t4,5f8 <fail>

0000046c <test_23>:
 46c:	4201                	li	tp,0
 46e:	40b9                	li	ra,14
 470:	412d                	li	sp,11
 472:	0001                	nop
 474:	402081b3          	sub	gp,ra,sp
 478:	0205                	addi	tp,tp,1
 47a:	4289                	li	t0,2
 47c:	fe5219e3          	bne	tp,t0,46e <test_23+0x2>
 480:	4e8d                	li	t4,3
 482:	4e5d                	li	t3,23
 484:	17d19a63          	bne	gp,t4,5f8 <fail>

00000488 <test_24>:
 488:	4201                	li	tp,0
 48a:	40bd                	li	ra,15
 48c:	412d                	li	sp,11
 48e:	0001                	nop
 490:	0001                	nop
 492:	402081b3          	sub	gp,ra,sp
 496:	0205                	addi	tp,tp,1
 498:	4289                	li	t0,2
 49a:	fe5218e3          	bne	tp,t0,48a <test_24+0x2>
 49e:	4e91                	li	t4,4
 4a0:	4e61                	li	t3,24
 4a2:	15d19b63          	bne	gp,t4,5f8 <fail>

000004a6 <test_25>:
 4a6:	4201                	li	tp,0
 4a8:	40b5                	li	ra,13
 4aa:	0001                	nop
 4ac:	412d                	li	sp,11
 4ae:	402081b3          	sub	gp,ra,sp
 4b2:	0205                	addi	tp,tp,1
 4b4:	4289                	li	t0,2
 4b6:	fe5219e3          	bne	tp,t0,4a8 <test_25+0x2>
 4ba:	4e89                	li	t4,2
 4bc:	4e65                	li	t3,25
 4be:	13d19d63          	bne	gp,t4,5f8 <fail>

000004c2 <test_26>:
 4c2:	4201                	li	tp,0
 4c4:	40b9                	li	ra,14
 4c6:	0001                	nop
 4c8:	412d                	li	sp,11
 4ca:	0001                	nop
 4cc:	402081b3          	sub	gp,ra,sp
 4d0:	0205                	addi	tp,tp,1
 4d2:	4289                	li	t0,2
 4d4:	fe5218e3          	bne	tp,t0,4c4 <test_26+0x2>
 4d8:	4e8d                	li	t4,3
 4da:	4e69                	li	t3,26
 4dc:	11d19e63          	bne	gp,t4,5f8 <fail>

000004e0 <test_27>:
 4e0:	4201                	li	tp,0
 4e2:	40bd                	li	ra,15
 4e4:	0001                	nop
 4e6:	0001                	nop
 4e8:	412d                	li	sp,11
 4ea:	402081b3          	sub	gp,ra,sp
 4ee:	0205                	addi	tp,tp,1
 4f0:	4289                	li	t0,2
 4f2:	fe5218e3          	bne	tp,t0,4e2 <test_27+0x2>
 4f6:	4e91                	li	t4,4
 4f8:	4e6d                	li	t3,27
 4fa:	0fd19f63          	bne	gp,t4,5f8 <fail>

000004fe <test_28>:
 4fe:	4201                	li	tp,0
 500:	412d                	li	sp,11
 502:	40b5                	li	ra,13
 504:	402081b3          	sub	gp,ra,sp
 508:	0205                	addi	tp,tp,1
 50a:	4289                	li	t0,2
 50c:	fe521ae3          	bne	tp,t0,500 <test_28+0x2>
 510:	4e89                	li	t4,2
 512:	4e71                	li	t3,28
 514:	0fd19263          	bne	gp,t4,5f8 <fail>

00000518 <test_29>:
 518:	4201                	li	tp,0
 51a:	412d                	li	sp,11
 51c:	40b9                	li	ra,14
 51e:	0001                	nop
 520:	402081b3          	sub	gp,ra,sp
 524:	0205                	addi	tp,tp,1
 526:	4289                	li	t0,2
 528:	fe5219e3          	bne	tp,t0,51a <test_29+0x2>
 52c:	4e8d                	li	t4,3
 52e:	4e75                	li	t3,29
 530:	0dd19463          	bne	gp,t4,5f8 <fail>

00000534 <test_30>:
 534:	4201                	li	tp,0
 536:	412d                	li	sp,11
 538:	40bd                	li	ra,15
 53a:	0001                	nop
 53c:	0001                	nop
 53e:	402081b3          	sub	gp,ra,sp
 542:	0205                	addi	tp,tp,1
 544:	4289                	li	t0,2
 546:	fe5218e3          	bne	tp,t0,536 <test_30+0x2>
 54a:	4e91                	li	t4,4
 54c:	4e79                	li	t3,30
 54e:	0bd19563          	bne	gp,t4,5f8 <fail>

00000552 <test_31>:
 552:	4201                	li	tp,0
 554:	412d                	li	sp,11
 556:	0001                	nop
 558:	40b5                	li	ra,13
 55a:	402081b3          	sub	gp,ra,sp
 55e:	0205                	addi	tp,tp,1
 560:	4289                	li	t0,2
 562:	fe5219e3          	bne	tp,t0,554 <test_31+0x2>
 566:	4e89                	li	t4,2
 568:	4e7d                	li	t3,31
 56a:	09d19763          	bne	gp,t4,5f8 <fail>

0000056e <test_32>:
 56e:	4201                	li	tp,0
 570:	412d                	li	sp,11
 572:	0001                	nop
 574:	40b9                	li	ra,14
 576:	0001                	nop
 578:	402081b3          	sub	gp,ra,sp
 57c:	0205                	addi	tp,tp,1
 57e:	4289                	li	t0,2
 580:	fe5218e3          	bne	tp,t0,570 <test_32+0x2>
 584:	4e8d                	li	t4,3
 586:	02000e13          	li	t3,32
 58a:	07d19763          	bne	gp,t4,5f8 <fail>

0000058e <test_33>:
 58e:	4201                	li	tp,0
 590:	412d                	li	sp,11
 592:	0001                	nop
 594:	0001                	nop
 596:	40bd                	li	ra,15
 598:	402081b3          	sub	gp,ra,sp
 59c:	0205                	addi	tp,tp,1
 59e:	4289                	li	t0,2
 5a0:	fe5218e3          	bne	tp,t0,590 <test_33+0x2>
 5a4:	4e91                	li	t4,4
 5a6:	02100e13          	li	t3,33
 5aa:	05d19763          	bne	gp,t4,5f8 <fail>

000005ae <test_34>:
 5ae:	ff100093          	li	ra,-15
 5b2:	40100133          	neg	sp,ra
 5b6:	4ebd                	li	t4,15
 5b8:	02200e13          	li	t3,34
 5bc:	03d11e63          	bne	sp,t4,5f8 <fail>

000005c0 <test_35>:
 5c0:	02000093          	li	ra,32
 5c4:	40008133          	sub	sp,ra,zero
 5c8:	02000e93          	li	t4,32
 5cc:	02300e13          	li	t3,35
 5d0:	03d11463          	bne	sp,t4,5f8 <fail>

000005d4 <test_36>:
 5d4:	400000b3          	neg	ra,zero
 5d8:	4e81                	li	t4,0
 5da:	02400e13          	li	t3,36
 5de:	01d09d63          	bne	ra,t4,5f8 <fail>

000005e2 <test_37>:
 5e2:	40c1                	li	ra,16
 5e4:	4179                	li	sp,30
 5e6:	40208033          	sub	zero,ra,sp
 5ea:	4e81                	li	t4,0
 5ec:	02500e13          	li	t3,37
 5f0:	01d01463          	bne	zero,t4,5f8 <fail>
 5f4:	01c01863          	bne	zero,t3,604 <pass>

000005f8 <fail>:
 5f8:	0ff0000f          	fence
 5fc:	85f2                	mv	a1,t3
 5fe:	4505                	li	a0,1
 600:	00000073          	ecall

00000604 <pass>:
 604:	0ff0000f          	fence
 608:	85f2                	mv	a1,t3
 60a:	4501                	li	a0,0
 60c:	00000073          	ecall

00000610 <ecall>:
 610:	00000073          	ecall
	...

00000620 <sc_exit>:
 620:	00000297          	auipc	t0,0x0
 624:	ad428293          	addi	t0,t0,-1324 # f4 <SIM_EXIT>
 628:	8282                	jr	t0
 62a:	00000013          	nop
 62e:	00000013          	nop
 632:	00000013          	nop
 636:	00000013          	nop
 63a:	00000013          	nop
 63e:	0001                	nop
	...

Disassembly of section .tohost:

00000680 <tohost>:
	...

000006c0 <fromhost>:
	...
